; Function Attrs: mustprogress uwtable
define noundef zeroext i1 @_ZN2cv5aruco16RefineParameters21writeRefineParametersERNS_11FileStorageERKNSt7__cxx1112basic_stringIcSt11char_traitsIcESaIcEEE(ptr noundef nonnull align 4 dereferenceable(9) %0, ptr noundef nonnull align 8 dereferenceable(64) %1, ptr noundef nonnull align 8 dereferenceable(32) %2) local_unnamed_addr #3 align 2 personality ptr @__gxx_personality_v0 {
  %4 = alloca %"class.std::__cxx11::basic_string", align 8
  %5 = alloca %"class.std::allocator", align 1
  %6 = alloca %"class.std::__cxx11::basic_string", align 8
  %7 = alloca %"class.std::allocator", align 1
  %8 = alloca %"class.std::__cxx11::basic_string", align 8
  %9 = alloca %"class.std::allocator", align 1
  %10 = load ptr, ptr %1, align 8
  %11 = getelementptr inbounds i8, ptr %10, i64 24
  %12 = load ptr, ptr %11, align 8
  %13 = tail call noundef zeroext i1 %12(ptr noundef nonnull align 8 dereferenceable(64) %1)
  br i1 %13, label %21, label %14

14:                                               ; preds = %3
  call void @_ZNSaIcEC1Ev(ptr noundef nonnull align 1 dereferenceable(1) %9) #27
  invoke void @_ZNSt7__cxx1112basic_stringIcSt11char_traitsIcESaIcEEC1EPKcRKS3_(ptr noundef nonnull align 8 dereferenceable(32) %8, ptr noundef nonnull @.str, ptr noundef nonnull align 1 dereferenceable(1) %9)
          to label %15 unwind label %17

15:                                               ; preds = %14
  invoke void @_ZN2cv5errorEiRKNSt7__cxx1112basic_stringIcSt11char_traitsIcESaIcEEEPKcS9_i(i32 noundef -215, ptr noundef nonnull align 8 dereferenceable(32) %8, ptr noundef nonnull @__func__._ZN2cv5aruco16RefineParameters21writeRefineParametersERNS_11FileStorageERKNSt7__cxx1112basic_stringIcSt11char_traitsIcESaIcEEE, ptr noundef nonnull @.str.1, i32 noundef 105) #28
          to label %16 unwind label %19

16:                                               ; preds = %15
  unreachable

17:                                               ; preds = %14
  %18 = landingpad { ptr, i32 }
          cleanup
  br label %common.resume

19:                                               ; preds = %15
  %20 = landingpad { ptr, i32 }
          cleanup
  call void @_ZNSt7__cxx1112basic_stringIcSt11char_traitsIcESaIcEED1Ev(ptr noundef nonnull align 8 dereferenceable(32) %8) #27
  br label %common.resume

common.resume:                                    ; preds = %37, %39, %27, %29, %17, %19
  %.sink = phi ptr [ %9, %19 ], [ %9, %17 ], [ %7, %29 ], [ %7, %27 ], [ %5, %39 ], [ %5, %37 ]
  %common.resume.op = phi { ptr, i32 } [ %20, %19 ], [ %18, %17 ], [ %30, %29 ], [ %28, %27 ], [ %40, %39 ], [ %38, %37 ]
  call void @_ZNSaIcED1Ev(ptr noundef nonnull align 1 dereferenceable(1) %.sink) #27
  resume { ptr, i32 } %common.resume.op

21:                                               ; preds = %3
  %22 = tail call noundef zeroext i1 @_ZNKSt7__cxx1112basic_stringIcSt11char_traitsIcESaIcEE5emptyEv(ptr noundef nonnull align 8 dereferenceable(32) %2) #27
  br i1 %22, label %31, label %23

23:                                               ; preds = %21
  %24 = tail call noundef nonnull align 8 dereferenceable(64) ptr @_ZN2cvlsERNS_11FileStorageERKNSt7__cxx1112basic_stringIcSt11char_traitsIcESaIcEEE(ptr noundef nonnull align 8 dereferenceable(64) %1, ptr noundef nonnull align 8 dereferenceable(32) %2)
  call void @llvm.lifetime.start.p0(i64 32, ptr nonnull %6)
  call void @llvm.lifetime.start.p0(i64 1, ptr nonnull %7)
  call void @_ZNSaIcEC1Ev(ptr noundef nonnull align 1 dereferenceable(1) %7) #27
  invoke void @_ZNSt7__cxx1112basic_stringIcSt11char_traitsIcESaIcEEC1EPKcRKS3_(ptr noundef nonnull align 8 dereferenceable(32) %6, ptr noundef nonnull @.str.2, ptr noundef nonnull align 1 dereferenceable(1) %7)
          to label %25 unwind label %27

25:                                               ; preds = %23
  %26 = invoke noundef nonnull align 8 dereferenceable(64) ptr @_ZN2cvlsERNS_11FileStorageERKNSt7__cxx1112basic_stringIcSt11char_traitsIcESaIcEEE(ptr noundef nonnull align 8 dereferenceable(64) %24, ptr noundef nonnull align 8 dereferenceable(32) %6)
          to label %_ZN2cvlsERNS_11FileStorageEPKc.exit unwind label %29

27:                                               ; preds = %23
  %28 = landingpad { ptr, i32 }
          cleanup
  br label %common.resume

29:                                               ; preds = %25
  %30 = landingpad { ptr, i32 }
          cleanup
  call void @_ZNSt7__cxx1112basic_stringIcSt11char_traitsIcESaIcEED1Ev(ptr noundef nonnull align 8 dereferenceable(32) %6) #27
  br label %common.resume

_ZN2cvlsERNS_11FileStorageEPKc.exit:              ; preds = %25
  call void @_ZNSt7__cxx1112basic_stringIcSt11char_traitsIcESaIcEED1Ev(ptr noundef nonnull align 8 dereferenceable(32) %6) #27
  call void @_ZNSaIcED1Ev(ptr noundef nonnull align 1 dereferenceable(1) %7) #27
  call void @llvm.lifetime.end.p0(i64 32, ptr nonnull %6)
  call void @llvm.lifetime.end.p0(i64 1, ptr nonnull %7)
  br label %31

31:                                               ; preds = %_ZN2cvlsERNS_11FileStorageEPKc.exit, %21
  %32 = call fastcc noundef zeroext i1 @_ZN2cv5arucoL9readWriteERNS0_16RefineParametersEPKNS_8FileNodeEPNS_11FileStorageE(ptr noundef nonnull align 4 dereferenceable(9) %0, ptr noundef null, ptr noundef nonnull %1)
  %33 = call noundef zeroext i1 @_ZNKSt7__cxx1112basic_stringIcSt11char_traitsIcESaIcEE5emptyEv(ptr noundef nonnull align 8 dereferenceable(32) %2) #27
  br i1 %33, label %41, label %34

34:                                               ; preds = %31
  call void @llvm.lifetime.start.p0(i64 32, ptr nonnull %4)
  call void @llvm.lifetime.start.p0(i64 1, ptr nonnull %5)
  call void @_ZNSaIcEC1Ev(ptr noundef nonnull align 1 dereferenceable(1) %5) #27
  invoke void @_ZNSt7__cxx1112basic_stringIcSt11char_traitsIcESaIcEEC1EPKcRKS3_(ptr noundef nonnull align 8 dereferenceable(32) %4, ptr noundef nonnull @.str.3, ptr noundef nonnull align 1 dereferenceable(1) %5)
          to label %35 unwind label %37

35:                                               ; preds = %34
  %36 = invoke noundef nonnull align 8 dereferenceable(64) ptr @_ZN2cvlsERNS_11FileStorageERKNSt7__cxx1112basic_stringIcSt11char_traitsIcESaIcEEE(ptr noundef nonnull align 8 dereferenceable(64) %1, ptr noundef nonnull align 8 dereferenceable(32) %4)
          to label %_ZN2cvlsERNS_11FileStorageEPKc.exit13 unwind label %39

37:                                               ; preds = %34
  %38 = landingpad { ptr, i32 }
          cleanup
  br label %common.resume

39:                                               ; preds = %35
  %40 = landingpad { ptr, i32 }
          cleanup
  call void @_ZNSt7__cxx1112basic_stringIcSt11char_traitsIcESaIcEED1Ev(ptr noundef nonnull align 8 dereferenceable(32) %4) #27
  br label %common.resume

_ZN2cvlsERNS_11FileStorageEPKc.exit13:            ; preds = %35
  call void @_ZNSt7__cxx1112basic_stringIcSt11char_traitsIcESaIcEED1Ev(ptr noundef nonnull align 8 dereferenceable(32) %4) #27
  call void @_ZNSaIcED1Ev(ptr noundef nonnull align 1 dereferenceable(1) %5) #27
  call void @llvm.lifetime.end.p0(i64 32, ptr nonnull %4)
  call void @llvm.lifetime.end.p0(i64 1, ptr nonnull %5)
  br label %41

41:                                               ; preds = %_ZN2cvlsERNS_11FileStorageEPKc.exit13, %31
  ret i1 %32
}